target datalayout = "e-m:e-p270:32:32-p271:32:32-p272:64:64-i64:64-i128:128-f80:128-n8:16:32:64-S128"
target triple = "x86_64-pc-linux-gnu"

@.str.84 = private unnamed_addr constant [19 x i8] c"Dynamic libraries:\00", align 1
@.str.85 = private unnamed_addr constant [14 x i8] c"/proc/%d/maps\00", align 1
@.str.86 = private unnamed_addr constant [45 x i8] c"Can not get library information for pid = %d\00", align 1
@.str.87 = private unnamed_addr constant [29 x i8] c"Total number of mappings: %u\00", align 1

; Function Attrs: mustprogress nounwind uwtable
define hidden noundef i32 @_ZN2os5Linux6gettidEv() #1 align 2 {
  %1 = alloca i64, align 8
  %2 = call i64 (i64, ...) @syscall(i64 noundef 186) #12
  store i64 %2, ptr %1, align 8
  %3 = load i64, ptr %1, align 8
  %4 = trunc i64 %3 to i32
  ret i32 %4
}

; Function Attrs: mustprogress nounwind uwtable
define hidden void @_ZN2os14print_dll_infoEP12outputStream(ptr noundef %0) #1 align 2 {
  %2 = alloca ptr, align 8
  %3 = alloca [32 x i8], align 16
  %4 = alloca i32, align 4
  %5 = alloca i32, align 4
  store ptr %0, ptr %2, align 8
  %6 = load ptr, ptr %2, align 8
  call void (ptr, ptr, ...) @_ZN12outputStream8print_crEPKcz(ptr noundef nonnull align 8 dereferenceable(56) %6, ptr noundef @.str.84)
  %7 = call noundef i32 @_ZN2os5Linux6gettidEv()
  store i32 %7, ptr %4, align 4
  %8 = getelementptr inbounds [32 x i8], ptr %3, i64 0, i64 0
  %9 = load i32, ptr %4, align 4
  %10 = call i32 (ptr, i64, ptr, ...) @jio_snprintf(ptr noundef %8, i64 noundef 32, ptr noundef @.str.85, i32 noundef %9)
  store i32 0, ptr %5, align 4
  %11 = getelementptr inbounds [32 x i8], ptr %3, i64 0, i64 0
  %12 = load ptr, ptr %2, align 8
  %13 = call noundef zeroext i1 @_ZL17_print_ascii_filePKcP12outputStreamPjS0_(ptr noundef %11, ptr noundef %12, ptr noundef %5, ptr noundef null)
  br i1 %13, label %17, label %14

14:                                               ; preds = %1
  %15 = load ptr, ptr %2, align 8
  %16 = load i32, ptr %4, align 4
  call void (ptr, ptr, ...) @_ZN12outputStream8print_crEPKcz(ptr noundef nonnull align 8 dereferenceable(56) %15, ptr noundef @.str.86, i32 noundef %16)
  br label %20

17:                                               ; preds = %1
  %18 = load ptr, ptr %2, align 8
  %19 = load i32, ptr %5, align 4
  call void (ptr, ptr, ...) @_ZN12outputStream8print_crEPKcz(ptr noundef nonnull align 8 dereferenceable(56) %18, ptr noundef @.str.87, i32 noundef %19)
  br label %20

20:                                               ; preds = %17, %14
  ret void
}