; Function Attrs: mustprogress nounwind uwtable
define hidden void @_ZN2os14print_dll_infoEP12outputStream(ptr noundef nonnull %0) local_unnamed_addr #0 align 2 {
  %2 = alloca [32 x i8], align 16
  %3 = alloca i32, align 4
  tail call void (ptr, ptr, ...) @_ZN12outputStream8print_crEPKcz(ptr noundef nonnull align 8 dereferenceable(56) %0, ptr noundef nonnull @.str.84) #26
  %4 = tail call i64 (i64, ...) @syscall(i64 noundef 186) #26
  %5 = trunc i64 %4 to i32
  %6 = call i32 (ptr, i64, ptr, ...) @jio_snprintf(ptr noundef nonnull %2, i64 noundef 32, ptr noundef nonnull @.str.85, i32 noundef %5) #26
  store i32 0, ptr %3, align 4
  %7 = call fastcc noundef zeroext i1 @_ZL17_print_ascii_filePKcP12outputStreamPjS0_(ptr noundef nonnull %2, ptr noundef nonnull %0, ptr noundef nonnull %3, ptr noundef null)
  br i1 %7, label %9, label %8

8:                                                ; preds = %1
  call void (ptr, ptr, ...) @_ZN12outputStream8print_crEPKcz(ptr noundef nonnull align 8 dereferenceable(56) %0, ptr noundef nonnull @.str.86, i32 noundef %5) #26
  br label %11

9:                                                ; preds = %1
  %10 = load i32, ptr %3, align 4
  call void (ptr, ptr, ...) @_ZN12outputStream8print_crEPKcz(ptr noundef nonnull align 8 dereferenceable(56) %0, ptr noundef nonnull @.str.87, i32 noundef %10) #26
  br label %11

11:                                               ; preds = %9, %8
  ret void
}